target datalayout = "e-m:e-p270:32:32-p271:32:32-p272:64:64-i64:64-i128:128-f80:128-n8:16:32:64-S128"
target triple = "x86_64-pc-linux-gnu"

@l_Lake_Toml_trailingWs = global ptr null, align 8
@l_Lake_Toml_keyvalCore___closed__7 = internal global ptr null, align 8
@l_Lake_Toml_key = global ptr null, align 8
@l_Lake_Toml_keyvalCore___closed__1 = internal global ptr null, align 8
@l_Lake_Toml_keyvalCore___closed__2 = internal global ptr null, align 8
@l_Lake_Toml_inlineTableCore___closed__11 = internal global ptr null, align 8
@l_Lake_Toml_inlineTableCore___closed__10 = internal global ptr null, align 8
@l_Lake_Toml_inlineTableCore___closed__16 = internal global ptr null, align 8
@l_Lake_Toml_inlineTableCore___closed__5 = internal global ptr null, align 8
@l_Lake_Toml_inlineTableCore___closed__1 = internal global ptr null, align 8
@l_Lake_Toml_inlineTableCore___closed__2 = internal global ptr null, align 8

; Function Attrs: nounwind uwtable
define ptr @l_Lake_Toml_keyvalCore(ptr noundef %0) #2 {
  %2 = alloca ptr, align 8
  %3 = alloca ptr, align 8
  %4 = alloca ptr, align 8
  %5 = alloca ptr, align 8
  %6 = alloca ptr, align 8
  %7 = alloca ptr, align 8
  %8 = alloca ptr, align 8
  %9 = alloca ptr, align 8
  %10 = alloca ptr, align 8
  %11 = alloca ptr, align 8
  %12 = alloca i8, align 1
  %13 = alloca ptr, align 8
  store ptr %0, ptr %2, align 8, !tbaa !8
  br label %14

14:                                               ; preds = %1
  call void @llvm.lifetime.start.p0(i64 8, ptr %3) #7
  call void @llvm.lifetime.start.p0(i64 8, ptr %4) #7
  call void @llvm.lifetime.start.p0(i64 8, ptr %5) #7
  call void @llvm.lifetime.start.p0(i64 8, ptr %6) #7
  call void @llvm.lifetime.start.p0(i64 8, ptr %7) #7
  call void @llvm.lifetime.start.p0(i64 8, ptr %8) #7
  call void @llvm.lifetime.start.p0(i64 8, ptr %9) #7
  call void @llvm.lifetime.start.p0(i64 8, ptr %10) #7
  call void @llvm.lifetime.start.p0(i64 8, ptr %11) #7
  call void @llvm.lifetime.start.p0(i64 1, ptr %12) #7
  call void @llvm.lifetime.start.p0(i64 8, ptr %13) #7
  %15 = load ptr, ptr @l_Lake_Toml_trailingWs, align 8, !tbaa !8
  store ptr %15, ptr %3, align 8, !tbaa !8
  %16 = load ptr, ptr %3, align 8, !tbaa !8
  %17 = load ptr, ptr %2, align 8, !tbaa !8
  %18 = call ptr @l_Lean_Parser_andthen(ptr noundef %16, ptr noundef %17)
  store ptr %18, ptr %4, align 8, !tbaa !8
  %19 = load ptr, ptr @l_Lake_Toml_keyvalCore___closed__7, align 8, !tbaa !8
  store ptr %19, ptr %5, align 8, !tbaa !8
  %20 = load ptr, ptr %5, align 8, !tbaa !8
  %21 = load ptr, ptr %4, align 8, !tbaa !8
  %22 = call ptr @l_Lean_Parser_andthen(ptr noundef %20, ptr noundef %21)
  store ptr %22, ptr %6, align 8, !tbaa !8
  %23 = load ptr, ptr %3, align 8, !tbaa !8
  %24 = load ptr, ptr %6, align 8, !tbaa !8
  %25 = call ptr @l_Lean_Parser_andthen(ptr noundef %23, ptr noundef %24)
  store ptr %25, ptr %7, align 8, !tbaa !8
  %26 = load ptr, ptr @l_Lake_Toml_key, align 8, !tbaa !8
  store ptr %26, ptr %8, align 8, !tbaa !8
  %27 = load ptr, ptr %8, align 8, !tbaa !8
  %28 = load ptr, ptr %7, align 8, !tbaa !8
  %29 = call ptr @l_Lean_Parser_andthen(ptr noundef %27, ptr noundef %28)
  store ptr %29, ptr %9, align 8, !tbaa !8
  %30 = load ptr, ptr @l_Lake_Toml_keyvalCore___closed__1, align 8, !tbaa !8
  store ptr %30, ptr %10, align 8, !tbaa !8
  %31 = load ptr, ptr @l_Lake_Toml_keyvalCore___closed__2, align 8, !tbaa !8
  store ptr %31, ptr %11, align 8, !tbaa !8
  store i8 1, ptr %12, align 1, !tbaa !14
  %32 = load ptr, ptr %10, align 8, !tbaa !8
  %33 = load ptr, ptr %11, align 8, !tbaa !8
  %34 = load ptr, ptr %9, align 8, !tbaa !8
  %35 = load i8, ptr %12, align 1, !tbaa !14
  %36 = call ptr @l_Lean_Parser_nodeWithAntiquot(ptr noundef %32, ptr noundef %33, ptr noundef %34, i8 noundef zeroext %35)
  store ptr %36, ptr %13, align 8, !tbaa !8
  %37 = load ptr, ptr %13, align 8, !tbaa !8
  call void @llvm.lifetime.end.p0(i64 8, ptr %13) #7
  call void @llvm.lifetime.end.p0(i64 1, ptr %12) #7
  call void @llvm.lifetime.end.p0(i64 8, ptr %11) #7
  call void @llvm.lifetime.end.p0(i64 8, ptr %10) #7
  call void @llvm.lifetime.end.p0(i64 8, ptr %9) #7
  call void @llvm.lifetime.end.p0(i64 8, ptr %8) #7
  call void @llvm.lifetime.end.p0(i64 8, ptr %7) #7
  call void @llvm.lifetime.end.p0(i64 8, ptr %6) #7
  call void @llvm.lifetime.end.p0(i64 8, ptr %5) #7
  call void @llvm.lifetime.end.p0(i64 8, ptr %4) #7
  call void @llvm.lifetime.end.p0(i64 8, ptr %3) #7
  ret ptr %37
}

; Function Attrs: nounwind uwtable
define ptr @l_Lake_Toml_inlineTableCore(ptr noundef %0) #2 {
  %2 = alloca ptr, align 8
  %3 = alloca ptr, align 8
  %4 = alloca ptr, align 8
  %5 = alloca ptr, align 8
  %6 = alloca ptr, align 8
  %7 = alloca ptr, align 8
  %8 = alloca i8, align 1
  %9 = alloca ptr, align 8
  %10 = alloca ptr, align 8
  %11 = alloca ptr, align 8
  %12 = alloca ptr, align 8
  %13 = alloca ptr, align 8
  %14 = alloca ptr, align 8
  %15 = alloca ptr, align 8
  %16 = alloca ptr, align 8
  store ptr %0, ptr %2, align 8, !tbaa !8
  br label %17

17:                                               ; preds = %1
  call void @llvm.lifetime.start.p0(i64 8, ptr %3) #7
  call void @llvm.lifetime.start.p0(i64 8, ptr %4) #7
  call void @llvm.lifetime.start.p0(i64 8, ptr %5) #7
  call void @llvm.lifetime.start.p0(i64 8, ptr %6) #7
  call void @llvm.lifetime.start.p0(i64 8, ptr %7) #7
  call void @llvm.lifetime.start.p0(i64 1, ptr %8) #7
  call void @llvm.lifetime.start.p0(i64 8, ptr %9) #7
  call void @llvm.lifetime.start.p0(i64 8, ptr %10) #7
  call void @llvm.lifetime.start.p0(i64 8, ptr %11) #7
  call void @llvm.lifetime.start.p0(i64 8, ptr %12) #7
  call void @llvm.lifetime.start.p0(i64 8, ptr %13) #7
  call void @llvm.lifetime.start.p0(i64 8, ptr %14) #7
  call void @llvm.lifetime.start.p0(i64 8, ptr %15) #7
  call void @llvm.lifetime.start.p0(i64 8, ptr %16) #7
  %18 = load ptr, ptr %2, align 8, !tbaa !8
  %19 = call ptr @l_Lake_Toml_keyvalCore(ptr noundef %18)
  store ptr %19, ptr %3, align 8, !tbaa !8
  %20 = load ptr, ptr @l_Lake_Toml_trailingWs, align 8, !tbaa !8
  store ptr %20, ptr %4, align 8, !tbaa !8
  %21 = load ptr, ptr %3, align 8, !tbaa !8
  %22 = load ptr, ptr %4, align 8, !tbaa !8
  %23 = call ptr @l_Lean_Parser_andthen(ptr noundef %21, ptr noundef %22)
  store ptr %23, ptr %5, align 8, !tbaa !8
  %24 = load ptr, ptr @l_Lake_Toml_inlineTableCore___closed__11, align 8, !tbaa !8
  store ptr %24, ptr %6, align 8, !tbaa !8
  %25 = load ptr, ptr @l_Lake_Toml_inlineTableCore___closed__10, align 8, !tbaa !8
  store ptr %25, ptr %7, align 8, !tbaa !8
  store i8 0, ptr %8, align 1, !tbaa !14
  %26 = load ptr, ptr %5, align 8, !tbaa !8
  %27 = load ptr, ptr %6, align 8, !tbaa !8
  %28 = load ptr, ptr %7, align 8, !tbaa !8
  %29 = load i8, ptr %8, align 1, !tbaa !14
  %30 = call ptr @l_Lean_Parser_sepBy(ptr noundef %26, ptr noundef %27, ptr noundef %28, i8 noundef zeroext %29)
  store ptr %30, ptr %9, align 8, !tbaa !8
  %31 = load ptr, ptr @l_Lake_Toml_inlineTableCore___closed__16, align 8, !tbaa !8
  store ptr %31, ptr %10, align 8, !tbaa !8
  %32 = load ptr, ptr %9, align 8, !tbaa !8
  %33 = load ptr, ptr %10, align 8, !tbaa !8
  %34 = call ptr @l_Lean_Parser_andthen(ptr noundef %32, ptr noundef %33)
  store ptr %34, ptr %11, align 8, !tbaa !8
  %35 = load ptr, ptr @l_Lake_Toml_inlineTableCore___closed__5, align 8, !tbaa !8
  store ptr %35, ptr %12, align 8, !tbaa !8
  %36 = load ptr, ptr %12, align 8, !tbaa !8
  %37 = load ptr, ptr %11, align 8, !tbaa !8
  %38 = call ptr @l_Lean_Parser_andthen(ptr noundef %36, ptr noundef %37)
  store ptr %38, ptr %13, align 8, !tbaa !8
  %39 = load ptr, ptr @l_Lake_Toml_inlineTableCore___closed__1, align 8, !tbaa !8
  store ptr %39, ptr %14, align 8, !tbaa !8
  %40 = load ptr, ptr @l_Lake_Toml_inlineTableCore___closed__2, align 8, !tbaa !8
  store ptr %40, ptr %15, align 8, !tbaa !8
  %41 = load ptr, ptr %14, align 8, !tbaa !8
  %42 = load ptr, ptr %15, align 8, !tbaa !8
  %43 = load ptr, ptr %13, align 8, !tbaa !8
  %44 = load i8, ptr %8, align 1, !tbaa !14
  %45 = call ptr @l_Lean_Parser_nodeWithAntiquot(ptr noundef %41, ptr noundef %42, ptr noundef %43, i8 noundef zeroext %44)
  store ptr %45, ptr %16, align 8, !tbaa !8
  %46 = load ptr, ptr %16, align 8, !tbaa !8
  call void @llvm.lifetime.end.p0(i64 8, ptr %16) #7
  call void @llvm.lifetime.end.p0(i64 8, ptr %15) #7
  call void @llvm.lifetime.end.p0(i64 8, ptr %14) #7
  call void @llvm.lifetime.end.p0(i64 8, ptr %13) #7
  call void @llvm.lifetime.end.p0(i64 8, ptr %12) #7
  call void @llvm.lifetime.end.p0(i64 8, ptr %11) #7
  call void @llvm.lifetime.end.p0(i64 8, ptr %10) #7
  call void @llvm.lifetime.end.p0(i64 8, ptr %9) #7
  call void @llvm.lifetime.end.p0(i64 1, ptr %8) #7
  call void @llvm.lifetime.end.p0(i64 8, ptr %7) #7
  call void @llvm.lifetime.end.p0(i64 8, ptr %6) #7
  call void @llvm.lifetime.end.p0(i64 8, ptr %5) #7
  call void @llvm.lifetime.end.p0(i64 8, ptr %4) #7
  call void @llvm.lifetime.end.p0(i64 8, ptr %3) #7
  ret ptr %46
}