; Function Attrs: nounwind uwtable
define ptr @l_Lake_Toml_inlineTableCore(ptr noundef %0) local_unnamed_addr #1 {
  %2 = load ptr, ptr @l_Lake_Toml_trailingWs, align 8, !tbaa !10
  %3 = tail call ptr @l_Lean_Parser_andthen(ptr noundef %2, ptr noundef %0) #4
  %4 = load ptr, ptr @l_Lake_Toml_keyvalCore___closed__7, align 8, !tbaa !10
  %5 = tail call ptr @l_Lean_Parser_andthen(ptr noundef %4, ptr noundef %3) #4
  %6 = tail call ptr @l_Lean_Parser_andthen(ptr noundef %2, ptr noundef %5) #4
  %7 = load ptr, ptr @l_Lake_Toml_key, align 8, !tbaa !10
  %8 = tail call ptr @l_Lean_Parser_andthen(ptr noundef %7, ptr noundef %6) #4
  %9 = load ptr, ptr @l_Lake_Toml_keyvalCore___closed__1, align 8, !tbaa !10
  %10 = load ptr, ptr @l_Lake_Toml_keyvalCore___closed__2, align 8, !tbaa !10
  %11 = tail call ptr @l_Lean_Parser_nodeWithAntiquot(ptr noundef %9, ptr noundef %10, ptr noundef %8, i8 noundef zeroext 1) #4
  %12 = load ptr, ptr @l_Lake_Toml_trailingWs, align 8, !tbaa !10
  %13 = tail call ptr @l_Lean_Parser_andthen(ptr noundef %11, ptr noundef %12) #4
  %14 = load ptr, ptr @l_Lake_Toml_inlineTableCore___closed__11, align 8, !tbaa !10
  %15 = load ptr, ptr @l_Lake_Toml_inlineTableCore___closed__10, align 8, !tbaa !10
  %16 = tail call ptr @l_Lean_Parser_sepBy(ptr noundef %13, ptr noundef %14, ptr noundef %15, i8 noundef zeroext 0) #4
  %17 = load ptr, ptr @l_Lake_Toml_inlineTableCore___closed__16, align 8, !tbaa !10
  %18 = tail call ptr @l_Lean_Parser_andthen(ptr noundef %16, ptr noundef %17) #4
  %19 = load ptr, ptr @l_Lake_Toml_inlineTableCore___closed__5, align 8, !tbaa !10
  %20 = tail call ptr @l_Lean_Parser_andthen(ptr noundef %19, ptr noundef %18) #4
  %21 = load ptr, ptr @l_Lake_Toml_inlineTableCore___closed__1, align 8, !tbaa !10
  %22 = load ptr, ptr @l_Lake_Toml_inlineTableCore___closed__2, align 8, !tbaa !10
  %23 = tail call ptr @l_Lean_Parser_nodeWithAntiquot(ptr noundef %21, ptr noundef %22, ptr noundef %20, i8 noundef zeroext 0) #4
  ret ptr %23
}